; Function Attrs: nounwind uwtable
define dso_local i32 @onig_foreach_name(ptr noundef %0, ptr noundef %1, ptr noundef %2) local_unnamed_addr #2 {
  %4 = alloca %struct.INamesArg, align 8
  call void @llvm.lifetime.start.p0(i64 40, ptr nonnull %4) #25
  %5 = getelementptr inbounds nuw i8, ptr %0, i64 128
  %6 = load ptr, ptr %5, align 8, !tbaa !27
  %7 = getelementptr inbounds nuw i8, ptr %4, i64 24
  store i32 0, ptr %7, align 8, !tbaa !29
  %.not = icmp eq ptr %6, null
  br i1 %.not, label %16, label %8

8:                                                ; preds = %3
  store ptr %1, ptr %4, align 8, !tbaa !32
  %9 = getelementptr inbounds nuw i8, ptr %4, i64 8
  store ptr %0, ptr %9, align 8, !tbaa !33
  %10 = getelementptr inbounds nuw i8, ptr %4, i64 16
  store ptr %2, ptr %10, align 8, !tbaa !34
  %11 = getelementptr inbounds nuw i8, ptr %0, i64 96
  %12 = load ptr, ptr %11, align 8, !tbaa !35
  %13 = getelementptr inbounds nuw i8, ptr %4, i64 32
  store ptr %12, ptr %13, align 8, !tbaa !36
  %14 = ptrtoint ptr %4 to i64
  %15 = call i32 @onig_st_foreach(ptr noundef nonnull %6, ptr noundef nonnull @i_names, i64 noundef %14) #25
  %.pre = load i32, ptr %7, align 8, !tbaa !29
  br label %16

16:                                               ; preds = %8, %3
  %17 = phi i32 [ %.pre, %8 ], [ 0, %3 ]
  call void @llvm.lifetime.end.p0(i64 40, ptr nonnull %4) #25
  ret i32 %17
}